target datalayout = "e-m:e-p270:32:32-p271:32:32-p272:64:64-i64:64-i128:128-f80:128-n8:16:32:64-S128"
target triple = "x86_64-pc-linux-gnu"

%struct.H5RS_str_t = type { ptr, ptr, i64, i64, i8, i32 }

@H5RS_init_g = global i8 0, align 1
@H5_libterm_g = external global i8, align 1
@.str = private unnamed_addr constant [98 x i8] c"generated/home/dtcxzyw/WorkSpace/Projects/compilers/llvm-opt-benchmark/bench/hdf5/hdf5/src/H5RS.c\00", align 1
@H5E_RS_g = external global i64, align 8
@H5E_CANTALLOC_g = external global i64, align 8
@.str.1 = private unnamed_addr constant [25 x i8] c"memory allocation failed\00", align 1
@H5E_CANTINIT_g = external global i64, align 8
@.str.3 = private unnamed_addr constant [36 x i8] c"can't initialize ref-counted string\00", align 1
@H5E_CANTRESIZE_g = external global i64, align 8
@.str.4 = private unnamed_addr constant [39 x i8] c"can't resize ref-counted string buffer\00", align 1
@__func__.H5RS_aputc = private unnamed_addr constant [11 x i8] c"H5RS_aputc\00", align 1
@__func__.H5RS__resize_for_append = private unnamed_addr constant [24 x i8] c"H5RS__resize_for_append\00", align 1
@H5_str_buf_blk_free_list = internal global { i8, [3 x i8], i32, i32, [4 x i8], i64, ptr, ptr } { i8 0, [3 x i8] zeroinitializer, i32 0, i32 0, [4 x i8] zeroinitializer, i64 0, ptr @.str.7, ptr null }, align 8

; Function Attrs: nounwind uwtable
define internal i32 @H5RS__resize_for_append(ptr noundef %0, i64 noundef %1) #0 {
  %3 = alloca ptr, align 8
  %4 = alloca i64, align 8
  %5 = alloca i32, align 4
  %6 = alloca i8, align 1
  store ptr %0, ptr %3, align 8, !tbaa !8
  store i64 %1, ptr %4, align 8, !tbaa !14
  call void @llvm.lifetime.start.p0(i64 4, ptr %5) #8
  store i32 0, ptr %5, align 4, !tbaa !19
  call void @llvm.lifetime.start.p0(i64 1, ptr %6) #8
  store i8 0, ptr %6, align 1, !tbaa !10
  %7 = load i8, ptr @H5RS_init_g, align 1, !tbaa !10, !range !12, !noundef !13
  %8 = trunc i8 %7 to i1
  br i1 %8, label %13, label %9

9:                                                ; preds = %2
  %10 = load i8, ptr @H5_libterm_g, align 1, !tbaa !10, !range !12, !noundef !13
  %11 = trunc i8 %10 to i1
  %12 = xor i1 %11, true
  br label %13

13:                                               ; preds = %9, %2
  %14 = phi i1 [ true, %2 ], [ %12, %9 ]
  %15 = xor i1 %14, true
  %16 = xor i1 %15, true
  %17 = zext i1 %16 to i32
  %18 = sext i32 %17 to i64
  %19 = call i64 @llvm.expect.i64(i64 %18, i64 1)
  %20 = icmp ne i64 %19, 0
  br i1 %20, label %21, label %89

21:                                               ; preds = %13
  %22 = load i64, ptr %4, align 8, !tbaa !14
  %23 = load ptr, ptr %3, align 8, !tbaa !8
  %24 = getelementptr inbounds nuw %struct.H5RS_str_t, ptr %23, i32 0, i32 3
  %25 = load i64, ptr %24, align 8, !tbaa !20
  %26 = load ptr, ptr %3, align 8, !tbaa !8
  %27 = getelementptr inbounds nuw %struct.H5RS_str_t, ptr %26, i32 0, i32 2
  %28 = load i64, ptr %27, align 8, !tbaa !26
  %29 = sub i64 %25, %28
  %30 = icmp uge i64 %22, %29
  br i1 %30, label %31, label %87

31:                                               ; preds = %21
  br label %32

32:                                               ; preds = %42, %31
  %33 = load i64, ptr %4, align 8, !tbaa !14
  %34 = load ptr, ptr %3, align 8, !tbaa !8
  %35 = getelementptr inbounds nuw %struct.H5RS_str_t, ptr %34, i32 0, i32 3
  %36 = load i64, ptr %35, align 8, !tbaa !20
  %37 = load ptr, ptr %3, align 8, !tbaa !8
  %38 = getelementptr inbounds nuw %struct.H5RS_str_t, ptr %37, i32 0, i32 2
  %39 = load i64, ptr %38, align 8, !tbaa !26
  %40 = sub i64 %36, %39
  %41 = icmp uge i64 %33, %40
  br i1 %41, label %42, label %47

42:                                               ; preds = %32
  %43 = load ptr, ptr %3, align 8, !tbaa !8
  %44 = getelementptr inbounds nuw %struct.H5RS_str_t, ptr %43, i32 0, i32 3
  %45 = load i64, ptr %44, align 8, !tbaa !20
  %46 = mul i64 %45, 2
  store i64 %46, ptr %44, align 8, !tbaa !20
  br label %32, !llvm.loop !29

47:                                               ; preds = %32
  %48 = load ptr, ptr %3, align 8, !tbaa !8
  %49 = getelementptr inbounds nuw %struct.H5RS_str_t, ptr %48, i32 0, i32 0
  %50 = load ptr, ptr %49, align 8, !tbaa !23
  %51 = load ptr, ptr %3, align 8, !tbaa !8
  %52 = getelementptr inbounds nuw %struct.H5RS_str_t, ptr %51, i32 0, i32 3
  %53 = load i64, ptr %52, align 8, !tbaa !20
  %54 = call ptr @H5FL_blk_realloc(ptr noundef @H5_str_buf_blk_free_list, ptr noundef %50, i64 noundef %53)
  %55 = load ptr, ptr %3, align 8, !tbaa !8
  %56 = getelementptr inbounds nuw %struct.H5RS_str_t, ptr %55, i32 0, i32 0
  store ptr %54, ptr %56, align 8, !tbaa !23
  %57 = icmp eq ptr null, %54
  br i1 %57, label %58, label %77

58:                                               ; preds = %47
  br label %59

59:                                               ; preds = %58
  br label %60

60:                                               ; preds = %59
  br label %61

61:                                               ; preds = %60
  %62 = load i64, ptr @H5E_RS_g, align 8, !tbaa !14
  %63 = load i64, ptr @H5E_CANTALLOC_g, align 8, !tbaa !14
  %64 = call i32 (ptr, ptr, i32, i64, i64, ptr, ...) @H5E_printf_stack(ptr noundef @.str, ptr noundef @__func__.H5RS__resize_for_append, i32 noundef 241, i64 noundef %62, i64 noundef %63, ptr noundef @.str.1)
  br label %65

65:                                               ; preds = %61
  br label %66

66:                                               ; preds = %65
  store i8 1, ptr %6, align 1, !tbaa !10
  %67 = load i8, ptr %6, align 1, !tbaa !10, !range !12, !noundef !13
  %68 = trunc i8 %67 to i1
  %69 = zext i1 %68 to i8
  store i8 %69, ptr %6, align 1, !tbaa !10
  br label %70

70:                                               ; preds = %66
  br label %71

71:                                               ; preds = %70
  br label %72

72:                                               ; preds = %71
  store i32 -1, ptr %5, align 4, !tbaa !19
  br label %88

73:                                               ; No predecessors!
  br label %74

74:                                               ; preds = %73
  br label %75

75:                                               ; preds = %74
  br label %76

76:                                               ; preds = %75
  br label %77

77:                                               ; preds = %76, %47
  %78 = load ptr, ptr %3, align 8, !tbaa !8
  %79 = getelementptr inbounds nuw %struct.H5RS_str_t, ptr %78, i32 0, i32 0
  %80 = load ptr, ptr %79, align 8, !tbaa !23
  %81 = load ptr, ptr %3, align 8, !tbaa !8
  %82 = getelementptr inbounds nuw %struct.H5RS_str_t, ptr %81, i32 0, i32 2
  %83 = load i64, ptr %82, align 8, !tbaa !26
  %84 = getelementptr inbounds nuw i8, ptr %80, i64 %83
  %85 = load ptr, ptr %3, align 8, !tbaa !8
  %86 = getelementptr inbounds nuw %struct.H5RS_str_t, ptr %85, i32 0, i32 1
  store ptr %84, ptr %86, align 8, !tbaa !24
  br label %87

87:                                               ; preds = %77, %21
  br label %88

88:                                               ; preds = %87, %72
  br label %89

89:                                               ; preds = %88, %13
  %90 = load i32, ptr %5, align 4, !tbaa !19
  call void @llvm.lifetime.end.p0(i64 1, ptr %6) #8
  call void @llvm.lifetime.end.p0(i64 4, ptr %5) #8
  ret i32 %90
}

; Function Attrs: nounwind uwtable
define i32 @H5RS_aputc(ptr noundef %0, i32 noundef %1) #0 {
  %3 = alloca ptr, align 8
  %4 = alloca i32, align 4
  %5 = alloca i32, align 4
  %6 = alloca i8, align 1
  store ptr %0, ptr %3, align 8, !tbaa !8
  store i32 %1, ptr %4, align 4, !tbaa !19
  call void @llvm.lifetime.start.p0(i64 4, ptr %5) #8
  store i32 0, ptr %5, align 4, !tbaa !19
  call void @llvm.lifetime.start.p0(i64 1, ptr %6) #8
  store i8 0, ptr %6, align 1, !tbaa !10
  %7 = load i8, ptr @H5RS_init_g, align 1, !tbaa !10, !range !12, !noundef !13
  %8 = trunc i8 %7 to i1
  br i1 %8, label %13, label %9

9:                                                ; preds = %2
  %10 = load i8, ptr @H5_libterm_g, align 1, !tbaa !10, !range !12, !noundef !13
  %11 = trunc i8 %10 to i1
  %12 = xor i1 %11, true
  br label %13

13:                                               ; preds = %9, %2
  %14 = phi i1 [ false, %2 ], [ %12, %9 ]
  %15 = xor i1 %14, true
  %16 = xor i1 %15, true
  %17 = zext i1 %16 to i32
  %18 = sext i32 %17 to i64
  %19 = call i64 @llvm.expect.i64(i64 %18, i64 0)
  %20 = icmp ne i64 %19, 0
  br i1 %20, label %21, label %22

21:                                               ; preds = %13
  store i8 1, ptr @H5RS_init_g, align 1, !tbaa !10
  br label %22

22:                                               ; preds = %21, %13
  %23 = load i8, ptr @H5RS_init_g, align 1, !tbaa !10, !range !12, !noundef !13
  %24 = trunc i8 %23 to i1
  br i1 %24, label %29, label %25

25:                                               ; preds = %22
  %26 = load i8, ptr @H5_libterm_g, align 1, !tbaa !10, !range !12, !noundef !13
  %27 = trunc i8 %26 to i1
  %28 = xor i1 %27, true
  br label %29

29:                                               ; preds = %25, %22
  %30 = phi i1 [ true, %22 ], [ %28, %25 ]
  %31 = xor i1 %30, true
  %32 = xor i1 %31, true
  %33 = zext i1 %32 to i32
  %34 = sext i32 %33 to i64
  %35 = call i64 @llvm.expect.i64(i64 %34, i64 1)
  %36 = icmp ne i64 %35, 0
  br i1 %36, label %37, label %108

37:                                               ; preds = %29
  %38 = load ptr, ptr %3, align 8, !tbaa !8
  %39 = call i32 @H5RS__prepare_for_append(ptr noundef %38)
  %40 = icmp slt i32 %39, 0
  br i1 %40, label %41, label %60

41:                                               ; preds = %37
  br label %42

42:                                               ; preds = %41
  br label %43

43:                                               ; preds = %42
  br label %44

44:                                               ; preds = %43
  %45 = load i64, ptr @H5E_RS_g, align 8, !tbaa !14
  %46 = load i64, ptr @H5E_CANTINIT_g, align 8, !tbaa !14
  %47 = call i32 (ptr, ptr, i32, i64, i64, ptr, ...) @H5E_printf_stack(ptr noundef @.str, ptr noundef @__func__.H5RS_aputc, i32 noundef 519, i64 noundef %45, i64 noundef %46, ptr noundef @.str.3)
  br label %48

48:                                               ; preds = %44
  br label %49

49:                                               ; preds = %48
  store i8 1, ptr %6, align 1, !tbaa !10
  %50 = load i8, ptr %6, align 1, !tbaa !10, !range !12, !noundef !13
  %51 = trunc i8 %50 to i1
  %52 = zext i1 %51 to i8
  store i8 %52, ptr %6, align 1, !tbaa !10
  br label %53

53:                                               ; preds = %49
  br label %54

54:                                               ; preds = %53
  br label %55

55:                                               ; preds = %54
  store i32 -1, ptr %5, align 4, !tbaa !19
  br label %107

56:                                               ; No predecessors!
  br label %57

57:                                               ; preds = %56
  br label %58

58:                                               ; preds = %57
  br label %59

59:                                               ; preds = %58
  br label %60

60:                                               ; preds = %59, %37
  %61 = load ptr, ptr %3, align 8, !tbaa !8
  %62 = getelementptr inbounds nuw %struct.H5RS_str_t, ptr %61, i32 0, i32 2
  %63 = load i64, ptr %62, align 8, !tbaa !26
  %64 = add i64 %63, 1
  %65 = load ptr, ptr %3, align 8, !tbaa !8
  %66 = getelementptr inbounds nuw %struct.H5RS_str_t, ptr %65, i32 0, i32 3
  %67 = load i64, ptr %66, align 8, !tbaa !20
  %68 = icmp uge i64 %64, %67
  br i1 %68, label %69, label %93

69:                                               ; preds = %60
  %70 = load ptr, ptr %3, align 8, !tbaa !8
  %71 = call i32 @H5RS__resize_for_append(ptr noundef %70, i64 noundef 1)
  %72 = icmp slt i32 %71, 0
  br i1 %72, label %73, label %92

73:                                               ; preds = %69
  br label %74

74:                                               ; preds = %73
  br label %75

75:                                               ; preds = %74
  br label %76

76:                                               ; preds = %75
  %77 = load i64, ptr @H5E_RS_g, align 8, !tbaa !14
  %78 = load i64, ptr @H5E_CANTRESIZE_g, align 8, !tbaa !14
  %79 = call i32 (ptr, ptr, i32, i64, i64, ptr, ...) @H5E_printf_stack(ptr noundef @.str, ptr noundef @__func__.H5RS_aputc, i32 noundef 524, i64 noundef %77, i64 noundef %78, ptr noundef @.str.4)
  br label %80

80:                                               ; preds = %76
  br label %81

81:                                               ; preds = %80
  store i8 1, ptr %6, align 1, !tbaa !10
  %82 = load i8, ptr %6, align 1, !tbaa !10, !range !12, !noundef !13
  %83 = trunc i8 %82 to i1
  %84 = zext i1 %83 to i8
  store i8 %84, ptr %6, align 1, !tbaa !10
  br label %85

85:                                               ; preds = %81
  br label %86

86:                                               ; preds = %85
  br label %87

87:                                               ; preds = %86
  store i32 -1, ptr %5, align 4, !tbaa !19
  br label %107

88:                                               ; No predecessors!
  br label %89

89:                                               ; preds = %88
  br label %90

90:                                               ; preds = %89
  br label %91

91:                                               ; preds = %90
  br label %92

92:                                               ; preds = %91, %69
  br label %93

93:                                               ; preds = %92, %60
  %94 = load i32, ptr %4, align 4, !tbaa !19
  %95 = trunc i32 %94 to i8
  %96 = load ptr, ptr %3, align 8, !tbaa !8
  %97 = getelementptr inbounds nuw %struct.H5RS_str_t, ptr %96, i32 0, i32 1
  %98 = load ptr, ptr %97, align 8, !tbaa !24
  %99 = getelementptr inbounds nuw i8, ptr %98, i32 1
  store ptr %99, ptr %97, align 8, !tbaa !24
  store i8 %95, ptr %98, align 1, !tbaa !25
  %100 = load ptr, ptr %3, align 8, !tbaa !8
  %101 = getelementptr inbounds nuw %struct.H5RS_str_t, ptr %100, i32 0, i32 2
  %102 = load i64, ptr %101, align 8, !tbaa !26
  %103 = add i64 %102, 1
  store i64 %103, ptr %101, align 8, !tbaa !26
  %104 = load ptr, ptr %3, align 8, !tbaa !8
  %105 = getelementptr inbounds nuw %struct.H5RS_str_t, ptr %104, i32 0, i32 1
  %106 = load ptr, ptr %105, align 8, !tbaa !24
  store i8 0, ptr %106, align 1, !tbaa !25
  br label %107

107:                                              ; preds = %93, %87, %55
  br label %108

108:                                              ; preds = %107, %29
  %109 = load i32, ptr %5, align 4, !tbaa !19
  call void @llvm.lifetime.end.p0(i64 1, ptr %6) #8
  call void @llvm.lifetime.end.p0(i64 4, ptr %5) #8
  ret i32 %109
}