; Function Attrs: nounwind uwtable
define range(i32 -1, 1) i32 @H5RS_aputc(ptr noundef captures(none) %0, i32 noundef %1) local_unnamed_addr #0 {
  %3 = load i8, ptr @H5RS_init_g, align 1, !tbaa !3, !range !7, !noundef !8
  %4 = trunc nuw i8 %3 to i1
  %5 = load i8, ptr @H5_libterm_g, align 1, !range !7
  %6 = trunc nuw i8 %5 to i1
  %7 = select i1 %4, i1 true, i1 %6
  br i1 %7, label %8, label %.thread, !prof !9

.thread:                                          ; preds = %2
  store i8 1, ptr @H5RS_init_g, align 1, !tbaa !3
  br label %11

8:                                                ; preds = %2
  %9 = xor i1 %6, true
  %10 = select i1 %4, i1 true, i1 %9
  br i1 %10, label %11, label %55, !prof !10

11:                                               ; preds = %.thread, %8
  %12 = tail call fastcc i32 @H5RS__prepare_for_append(ptr noundef %0)
  %13 = icmp slt i32 %12, 0
  br i1 %13, label %14, label %18

14:                                               ; preds = %11
  %15 = load i64, ptr @H5E_RS_g, align 8, !tbaa !11
  %16 = load i64, ptr @H5E_CANTINIT_g, align 8, !tbaa !11
  %17 = tail call i32 (ptr, ptr, i32, i64, i64, ptr, ...) @H5E_printf_stack(ptr noundef nonnull @.str, ptr noundef nonnull @__func__.H5RS_aputc, i32 noundef 519, i64 noundef %15, i64 noundef %16, ptr noundef nonnull @.str.3) #11
  br label %55

18:                                               ; preds = %11
  %19 = getelementptr inbounds nuw i8, ptr %0, i64 16
  %20 = load i64, ptr %19, align 8, !tbaa !23
  %21 = add i64 %20, 1
  %22 = getelementptr inbounds nuw i8, ptr %0, i64 24
  %23 = load i64, ptr %22, align 8, !tbaa !15
  %.not = icmp ult i64 %21, %23
  br i1 %.not, label %H5RS__resize_for_append.exit.thread, label %24

24:                                               ; preds = %18
  %25 = load i8, ptr @H5RS_init_g, align 1, !tbaa !3, !range !7, !noundef !8
  %26 = trunc nuw i8 %25 to i1
  %27 = load i8, ptr @H5_libterm_g, align 1, !range !7
  %28 = trunc nuw i8 %27 to i1
  %not. = xor i1 %26, true
  %.not11 = select i1 %not., i1 %28, i1 false
  %29 = sub i64 %23, %20
  %.not.i = icmp ugt i64 %29, 1
  %or.cond = or i1 %.not.i, %.not11
  br i1 %or.cond, label %H5RS__resize_for_append.exit.thread, label %.lr.ph.i, !prof !29

.lr.ph.i:                                         ; preds = %24, %.lr.ph.i
  %30 = phi i64 [ %31, %.lr.ph.i ], [ %23, %24 ]
  %31 = shl i64 %30, 1
  %32 = sub i64 %31, %20
  %.not15.i = icmp ugt i64 %32, 1
  br i1 %.not15.i, label %33, label %.lr.ph.i, !llvm.loop !27

33:                                               ; preds = %.lr.ph.i
  store i64 %31, ptr %22, align 8, !tbaa !15
  %34 = load ptr, ptr %0, align 8, !tbaa !20
  %35 = tail call ptr @H5FL_blk_realloc(ptr noundef nonnull @H5_str_buf_blk_free_list, ptr noundef %34, i64 noundef %31) #11
  store ptr %35, ptr %0, align 8, !tbaa !20
  %36 = icmp eq ptr %35, null
  br i1 %36, label %41, label %37

37:                                               ; preds = %33
  %38 = load i64, ptr %19, align 8, !tbaa !23
  %39 = getelementptr inbounds nuw i8, ptr %35, i64 %38
  %40 = getelementptr inbounds nuw i8, ptr %0, i64 8
  store ptr %39, ptr %40, align 8, !tbaa !21
  br label %H5RS__resize_for_append.exit.thread

41:                                               ; preds = %33
  %42 = load i64, ptr @H5E_RS_g, align 8, !tbaa !11
  %43 = load i64, ptr @H5E_CANTALLOC_g, align 8, !tbaa !11
  %44 = tail call i32 (ptr, ptr, i32, i64, i64, ptr, ...) @H5E_printf_stack(ptr noundef nonnull @.str, ptr noundef nonnull @__func__.H5RS__resize_for_append, i32 noundef 241, i64 noundef %42, i64 noundef %43, ptr noundef nonnull @.str.1) #11
  %45 = load i64, ptr @H5E_RS_g, align 8, !tbaa !11
  %46 = load i64, ptr @H5E_CANTRESIZE_g, align 8, !tbaa !11
  %47 = tail call i32 (ptr, ptr, i32, i64, i64, ptr, ...) @H5E_printf_stack(ptr noundef nonnull @.str, ptr noundef nonnull @__func__.H5RS_aputc, i32 noundef 524, i64 noundef %45, i64 noundef %46, ptr noundef nonnull @.str.4) #11
  br label %55

H5RS__resize_for_append.exit.thread:              ; preds = %24, %37, %18
  %48 = trunc i32 %1 to i8
  %49 = getelementptr inbounds nuw i8, ptr %0, i64 8
  %50 = load ptr, ptr %49, align 8, !tbaa !21
  %51 = getelementptr inbounds nuw i8, ptr %50, i64 1
  store ptr %51, ptr %49, align 8, !tbaa !21
  store i8 %48, ptr %50, align 1, !tbaa !22
  %52 = load i64, ptr %19, align 8, !tbaa !23
  %53 = add i64 %52, 1
  store i64 %53, ptr %19, align 8, !tbaa !23
  %54 = load ptr, ptr %49, align 8, !tbaa !21
  store i8 0, ptr %54, align 1, !tbaa !22
  br label %55

55:                                               ; preds = %14, %41, %H5RS__resize_for_append.exit.thread, %8
  %.0 = phi i32 [ -1, %14 ], [ -1, %41 ], [ 0, %H5RS__resize_for_append.exit.thread ], [ 0, %8 ]
  ret i32 %.0
}